target datalayout = "e-m:e-p270:32:32-p271:32:32-p272:64:64-i64:64-i128:128-f80:128-n8:16:32:64-S128"
target triple = "x86_64-pc-linux-gnu"

%struct._object = type { %union.anon, ptr }
%union.anon = type { i64 }
%struct.anon = type { i32, i32 }

@PyExc_TypeError = external global ptr, align 8
@.str.33 = private unnamed_addr constant [26 x i8] c"wrong number of arguments\00", align 1
@.str.34 = private unnamed_addr constant [17 x i8] c"PyErr_Occurred()\00", align 1
@.str.35 = private unnamed_addr constant [42 x i8] c"../cpython/Modules/_testcapi/exceptions.c\00", align 1
@__PRETTY_FUNCTION__.err_restore = private unnamed_addr constant [46 x i8] c"PyObject *err_restore(PyObject *, PyObject *)\00", align 1

; Function Attrs: alwaysinline nounwind uwtable
define internal void @Py_INCREF(ptr noundef %0) #3 {
  %2 = alloca ptr, align 8
  %3 = alloca i32, align 4
  %4 = alloca i32, align 4
  store ptr %0, ptr %2, align 8, !tbaa !3
  call void @llvm.lifetime.start.p0(i64 4, ptr %3) #10
  %5 = load ptr, ptr %2, align 8, !tbaa !3
  %6 = getelementptr inbounds nuw %struct._object, ptr %5, i32 0, i32 0
  %7 = getelementptr inbounds nuw %struct.anon, ptr %6, i32 0, i32 0
  %8 = load i32, ptr %7, align 8, !tbaa !20
  store i32 %8, ptr %3, align 4, !tbaa !21
  %9 = load i32, ptr %3, align 4, !tbaa !21
  %10 = icmp slt i32 %9, 0
  br i1 %10, label %11, label %12

11:                                               ; preds = %1
  store i32 1, ptr %4, align 4
  br label %18

12:                                               ; preds = %1
  %13 = load i32, ptr %3, align 4, !tbaa !21
  %14 = add i32 %13, 1
  %15 = load ptr, ptr %2, align 8, !tbaa !3
  %16 = getelementptr inbounds nuw %struct._object, ptr %15, i32 0, i32 0
  %17 = getelementptr inbounds nuw %struct.anon, ptr %16, i32 0, i32 0
  store i32 %14, ptr %17, align 8, !tbaa !20
  store i32 0, ptr %4, align 4
  br label %18

18:                                               ; preds = %12, %11
  call void @llvm.lifetime.end.p0(i64 4, ptr %3) #10
  %19 = load i32, ptr %4, align 4
  switch i32 %19, label %21 [
    i32 0, label %20
    i32 1, label %20
  ]

20:                                               ; preds = %18, %18
  ret void

21:                                               ; preds = %18
  unreachable
}

; Function Attrs: nounwind uwtable
define internal ptr @err_restore(ptr noundef %0, ptr noundef %1) #0 {
  %3 = alloca ptr, align 8
  %4 = alloca ptr, align 8
  %5 = alloca ptr, align 8
  %6 = alloca ptr, align 8
  %7 = alloca ptr, align 8
  %8 = alloca ptr, align 8
  %9 = alloca i32, align 4
  store ptr %0, ptr %4, align 8, !tbaa !3
  store ptr %1, ptr %5, align 8, !tbaa !3
  call void @llvm.lifetime.start.p0(i64 8, ptr %6) #10
  store ptr null, ptr %6, align 8, !tbaa !3
  call void @llvm.lifetime.start.p0(i64 8, ptr %7) #10
  store ptr null, ptr %7, align 8, !tbaa !3
  call void @llvm.lifetime.start.p0(i64 8, ptr %8) #10
  store ptr null, ptr %8, align 8, !tbaa !3
  %10 = load ptr, ptr %5, align 8, !tbaa !3
  %11 = call i64 @PyTuple_Size(ptr noundef %10)
  switch i64 %11, label %24 [
    i64 3, label %12
    i64 2, label %16
    i64 1, label %20
  ]

12:                                               ; preds = %2
  %13 = load ptr, ptr %5, align 8, !tbaa !3
  %14 = call ptr @PyTuple_GetItem(ptr noundef %13, i64 noundef 2)
  store ptr %14, ptr %8, align 8, !tbaa !3
  %15 = load ptr, ptr %8, align 8, !tbaa !3
  call void @Py_INCREF(ptr noundef %15)
  br label %16

16:                                               ; preds = %2, %12
  %17 = load ptr, ptr %5, align 8, !tbaa !3
  %18 = call ptr @PyTuple_GetItem(ptr noundef %17, i64 noundef 1)
  store ptr %18, ptr %7, align 8, !tbaa !3
  %19 = load ptr, ptr %7, align 8, !tbaa !3
  call void @Py_INCREF(ptr noundef %19)
  br label %20

20:                                               ; preds = %2, %16
  %21 = load ptr, ptr %5, align 8, !tbaa !3
  %22 = call ptr @PyTuple_GetItem(ptr noundef %21, i64 noundef 0)
  store ptr %22, ptr %6, align 8, !tbaa !3
  %23 = load ptr, ptr %6, align 8, !tbaa !3
  call void @Py_INCREF(ptr noundef %23)
  br label %26

24:                                               ; preds = %2
  %25 = load ptr, ptr @PyExc_TypeError, align 8, !tbaa !3
  call void @PyErr_SetString(ptr noundef %25, ptr noundef @.str.33)
  store ptr null, ptr %3, align 8
  store i32 1, ptr %9, align 4
  br label %36

26:                                               ; preds = %20
  %27 = load ptr, ptr %6, align 8, !tbaa !3
  %28 = load ptr, ptr %7, align 8, !tbaa !3
  %29 = load ptr, ptr %8, align 8, !tbaa !3
  call void @PyErr_Restore(ptr noundef %27, ptr noundef %28, ptr noundef %29)
  %30 = call ptr @PyErr_Occurred()
  %31 = icmp ne ptr %30, null
  br i1 %31, label %32, label %33

32:                                               ; preds = %26
  br label %35

33:                                               ; preds = %26
  call void @__assert_fail(ptr noundef @.str.34, ptr noundef @.str.35, i32 noundef 53, ptr noundef @__PRETTY_FUNCTION__.err_restore) #11
  unreachable

34:                                               ; No predecessors!
  br label %35

35:                                               ; preds = %34, %32
  store ptr null, ptr %3, align 8
  store i32 1, ptr %9, align 4
  br label %36

36:                                               ; preds = %35, %24
  call void @llvm.lifetime.end.p0(i64 8, ptr %8) #10
  call void @llvm.lifetime.end.p0(i64 8, ptr %7) #10
  call void @llvm.lifetime.end.p0(i64 8, ptr %6) #10
  %37 = load ptr, ptr %3, align 8
  ret ptr %37
}