; Function Attrs: nounwind uwtable
define internal noalias noundef ptr @err_restore(ptr readnone captures(none) %0, ptr noundef %1) #0 {
  %3 = tail call i64 @PyTuple_Size(ptr noundef %1) #8
  switch i64 %3, label %21 [
    i64 3, label %4
    i64 2, label %Py_INCREF.exit14
    i64 1, label %Py_INCREF.exit13
  ]

4:                                                ; preds = %2
  %5 = tail call ptr @PyTuple_GetItem(ptr noundef %1, i64 noundef 2) #8
  %6 = load i32, ptr %5, align 8, !tbaa !20
  %7 = icmp slt i32 %6, 0
  br i1 %7, label %Py_INCREF.exit14, label %8

8:                                                ; preds = %4
  %9 = add nuw i32 %6, 1
  store i32 %9, ptr %5, align 8, !tbaa !20
  br label %Py_INCREF.exit14

Py_INCREF.exit14:                                 ; preds = %8, %4, %2
  %.0 = phi ptr [ null, %2 ], [ %5, %4 ], [ %5, %8 ]
  %10 = tail call ptr @PyTuple_GetItem(ptr noundef %1, i64 noundef 1) #8
  %11 = load i32, ptr %10, align 8, !tbaa !20
  %12 = icmp slt i32 %11, 0
  br i1 %12, label %Py_INCREF.exit13, label %13

13:                                               ; preds = %Py_INCREF.exit14
  %14 = add nuw i32 %11, 1
  store i32 %14, ptr %10, align 8, !tbaa !20
  br label %Py_INCREF.exit13

Py_INCREF.exit13:                                 ; preds = %13, %Py_INCREF.exit14, %2
  %.011 = phi ptr [ null, %2 ], [ %10, %Py_INCREF.exit14 ], [ %10, %13 ]
  %.1 = phi ptr [ null, %2 ], [ %.0, %Py_INCREF.exit14 ], [ %.0, %13 ]
  %15 = tail call ptr @PyTuple_GetItem(ptr noundef %1, i64 noundef 0) #8
  %16 = load i32, ptr %15, align 8, !tbaa !20
  %17 = icmp slt i32 %16, 0
  br i1 %17, label %Py_INCREF.exit, label %18

18:                                               ; preds = %Py_INCREF.exit13
  %19 = add nuw i32 %16, 1
  store i32 %19, ptr %15, align 8, !tbaa !20
  br label %Py_INCREF.exit

Py_INCREF.exit:                                   ; preds = %Py_INCREF.exit13, %18
  tail call void @PyErr_Restore(ptr noundef nonnull %15, ptr noundef %.011, ptr noundef %.1) #8
  %20 = tail call ptr @PyErr_Occurred() #8
  %.not = icmp eq ptr %20, null
  br i1 %.not, label %23, label %24

21:                                               ; preds = %2
  %22 = load ptr, ptr @PyExc_TypeError, align 8, !tbaa !3
  tail call void @PyErr_SetString(ptr noundef %22, ptr noundef nonnull @.str.33) #8
  br label %24

23:                                               ; preds = %Py_INCREF.exit
  tail call void @__assert_fail(ptr noundef nonnull @.str.34, ptr noundef nonnull @.str.35, i32 noundef 53, ptr noundef nonnull @__PRETTY_FUNCTION__.err_restore) #9
  unreachable

24:                                               ; preds = %Py_INCREF.exit, %21
  ret ptr null
}